; ModuleID = 'source-C-CXX/29/3021.c'
source_filename = "source-C-CXX/29/3021.c"
target datalayout = "e-m:e-p270:32:32-p271:32:32-p272:64:64-i64:64-f80:128-n8:16:32:64-S128"
target triple = "x86_64-pc-linux-gnu"

@.str = private unnamed_addr constant [3 x i8] c"%d\00", align 1

; Function Attrs: nofree nounwind sspstrong uwtable
define dso_local i32 @main() local_unnamed_addr #0 {
  %1 = alloca i32, align 4
  %2 = bitcast i32* %1 to i8*
  call void @llvm.lifetime.start.p0i8(i64 4, i8* nonnull %2) #4
  %3 = call i32 (i8*, ...) @__isoc99_scanf(i8* getelementptr inbounds ([3 x i8], [3 x i8]* @.str, i64 0, i64 0), i32* nonnull %1)
  %4 = load i32, i32* %1, align 4, !tbaa !5
  %5 = icmp slt i32 %4, 0
  br i1 %5, label %71, label %6

6:                                                ; preds = %0
  %7 = add i32 %4, 1
  %8 = icmp ult i32 %7, 8
  br i1 %8, label %50, label %9

9:                                                ; preds = %6
  %10 = and i32 %7, -8
  br label %11

11:                                               ; preds = %11, %9
  %12 = phi i32 [ 0, %9 ], [ %43, %11 ]
  %13 = phi <4 x i32> [ zeroinitializer, %9 ], [ %41, %11 ]
  %14 = phi <4 x i32> [ zeroinitializer, %9 ], [ %42, %11 ]
  %15 = phi <4 x i32> [ <i32 0, i32 1, i32 2, i32 3>, %9 ], [ %44, %11 ]
  %16 = add <4 x i32> %15, <i32 4, i32 4, i32 4, i32 4>
  %17 = urem <4 x i32> %15, <i32 10, i32 10, i32 10, i32 10>
  %18 = urem <4 x i32> %16, <i32 10, i32 10, i32 10, i32 10>
  %19 = icmp eq <4 x i32> %17, <i32 7, i32 7, i32 7, i32 7>
  %20 = icmp eq <4 x i32> %18, <i32 7, i32 7, i32 7, i32 7>
  %21 = urem <4 x i32> %15, <i32 7, i32 7, i32 7, i32 7>
  %22 = urem <4 x i32> %16, <i32 7, i32 7, i32 7, i32 7>
  %23 = icmp eq <4 x i32> %21, zeroinitializer
  %24 = icmp eq <4 x i32> %22, zeroinitializer
  %25 = or <4 x i1> %19, %23
  %26 = or <4 x i1> %20, %24
  %27 = add nsw <4 x i32> %15, <i32 -70, i32 -70, i32 -70, i32 -70>
  %28 = add <4 x i32> %15, <i32 -66, i32 -66, i32 -66, i32 -66>
  %29 = icmp ult <4 x i32> %27, <i32 10, i32 10, i32 10, i32 10>
  %30 = icmp ult <4 x i32> %28, <i32 10, i32 10, i32 10, i32 10>
  %31 = select <4 x i1> %25, <4 x i1> <i1 true, i1 true, i1 true, i1 true>, <4 x i1> %29
  %32 = select <4 x i1> %26, <4 x i1> <i1 true, i1 true, i1 true, i1 true>, <4 x i1> %30
  %33 = sitofp <4 x i32> %15 to <4 x double>
  %34 = sitofp <4 x i32> %16 to <4 x double>
  %35 = fmul <4 x double> %33, %33
  %36 = fmul <4 x double> %34, %34
  %37 = fptosi <4 x double> %35 to <4 x i32>
  %38 = fptosi <4 x double> %36 to <4 x i32>
  %39 = select <4 x i1> %31, <4 x i32> zeroinitializer, <4 x i32> %37
  %40 = select <4 x i1> %32, <4 x i32> zeroinitializer, <4 x i32> %38
  %41 = add <4 x i32> %39, %13
  %42 = add <4 x i32> %40, %14
  %43 = add nuw i32 %12, 8
  %44 = add <4 x i32> %15, <i32 8, i32 8, i32 8, i32 8>
  %45 = icmp eq i32 %43, %10
  br i1 %45, label %46, label %11, !llvm.loop !9

46:                                               ; preds = %11
  %47 = add <4 x i32> %42, %41
  %48 = call i32 @llvm.vector.reduce.add.v4i32(<4 x i32> %47)
  %49 = icmp eq i32 %7, %10
  br i1 %49, label %71, label %50

50:                                               ; preds = %6, %46
  %51 = phi i32 [ 0, %6 ], [ %48, %46 ]
  %52 = phi i32 [ 0, %6 ], [ %10, %46 ]
  br label %53

53:                                               ; preds = %50, %53
  %54 = phi i32 [ %68, %53 ], [ %51, %50 ]
  %55 = phi i32 [ %69, %53 ], [ %52, %50 ]
  %56 = urem i32 %55, 10
  %57 = icmp eq i32 %56, 7
  %58 = urem i32 %55, 7
  %59 = icmp eq i32 %58, 0
  %60 = or i1 %57, %59
  %61 = add nsw i32 %55, -70
  %62 = icmp ult i32 %61, 10
  %63 = select i1 %60, i1 true, i1 %62
  %64 = sitofp i32 %55 to double
  %65 = fmul double %64, %64
  %66 = fptosi double %65 to i32
  %67 = select i1 %63, i32 0, i32 %66
  %68 = add nsw i32 %67, %54
  %69 = add nuw i32 %55, 1
  %70 = icmp eq i32 %55, %4
  br i1 %70, label %71, label %53, !llvm.loop !12

71:                                               ; preds = %53, %46, %0
  %72 = phi i32 [ 0, %0 ], [ %48, %46 ], [ %68, %53 ]
  %73 = call i32 (i8*, ...) @printf(i8* nonnull dereferenceable(1) getelementptr inbounds ([3 x i8], [3 x i8]* @.str, i64 0, i64 0), i32 %72)
  call void @llvm.lifetime.end.p0i8(i64 4, i8* nonnull %2) #4
  ret i32 0
}

; Function Attrs: argmemonly mustprogress nofree nosync nounwind willreturn
declare void @llvm.lifetime.start.p0i8(i64 immarg, i8* nocapture) #1

; Function Attrs: nofree nounwind
declare noundef i32 @__isoc99_scanf(i8* nocapture noundef readonly, ...) local_unnamed_addr #2

; Function Attrs: nofree nounwind
declare noundef i32 @printf(i8* nocapture noundef readonly, ...) local_unnamed_addr #2

; Function Attrs: argmemonly mustprogress nofree nosync nounwind willreturn
declare void @llvm.lifetime.end.p0i8(i64 immarg, i8* nocapture) #1

; Function Attrs: nofree nosync nounwind readnone willreturn
declare i32 @llvm.vector.reduce.add.v4i32(<4 x i32>) #3


!llvm.module.flags = !{!0, !1, !2, !3}
!llvm.ident = !{!4}

!0 = !{i32 1, !"wchar_size", i32 4}
!1 = !{i32 7, !"PIC Level", i32 2}
!2 = !{i32 7, !"PIE Level", i32 2}
!3 = !{i32 7, !"uwtable", i32 1}
!4 = !{!"clang version 13.0.0"}
!5 = !{!6, !6, i64 0}
!6 = !{!"int", !7, i64 0}
!7 = !{!"omnipotent char", !8, i64 0}
!8 = !{!"Simple C/C++ TBAA"}
!9 = distinct !{!9, !10, !11}
!10 = !{!"llvm.loop.mustprogress"}
!11 = !{!"llvm.loop.isvectorized", i32 1}
!12 = distinct !{!12, !10, !13, !11}
!13 = !{!"llvm.loop.unroll.runtime.disable"}
